target datalayout = "e-m:e-p270:32:32-p271:32:32-p272:64:64-i64:64-i128:128-f80:128-n8:16:32:64-S128"
target triple = "x86_64-pc-linux-gnu"

%struct.bdaddr_t = type { [6 x i8] }

@PyExc_OSError = external global ptr, align 8
@.str.598 = private unnamed_addr constant [20 x i8] c"%X:%X:%X:%X:%X:%X%c\00", align 1
@.str.599 = private unnamed_addr constant [22 x i8] c"bad bluetooth address\00", align 1

; Function Attrs: nounwind uwtable
define internal i32 @setbdaddr(ptr noundef %0, ptr noundef %1) #0 {
  %3 = alloca i32, align 4
  %4 = alloca ptr, align 8
  %5 = alloca ptr, align 8
  %6 = alloca i32, align 4
  %7 = alloca i32, align 4
  %8 = alloca i32, align 4
  %9 = alloca i32, align 4
  %10 = alloca i32, align 4
  %11 = alloca i32, align 4
  %12 = alloca i8, align 1
  %13 = alloca i32, align 4
  %14 = alloca i32, align 4
  store ptr %0, ptr %4, align 8, !tbaa !24
  store ptr %1, ptr %5, align 8, !tbaa !8
  call void @llvm.lifetime.start.p0(i64 4, ptr %6) #10
  call void @llvm.lifetime.start.p0(i64 4, ptr %7) #10
  call void @llvm.lifetime.start.p0(i64 4, ptr %8) #10
  call void @llvm.lifetime.start.p0(i64 4, ptr %9) #10
  call void @llvm.lifetime.start.p0(i64 4, ptr %10) #10
  call void @llvm.lifetime.start.p0(i64 4, ptr %11) #10
  call void @llvm.lifetime.start.p0(i64 1, ptr %12) #10
  call void @llvm.lifetime.start.p0(i64 4, ptr %13) #10
  %15 = load ptr, ptr %4, align 8, !tbaa !24
  %16 = call i32 (ptr, ptr, ...) @__isoc99_sscanf(ptr noundef %15, ptr noundef @.str.598, ptr noundef %11, ptr noundef %10, ptr noundef %9, ptr noundef %8, ptr noundef %7, ptr noundef %6, ptr noundef %12) #10
  store i32 %16, ptr %13, align 4, !tbaa !15
  %17 = load i32, ptr %13, align 4, !tbaa !15
  %18 = icmp eq i32 %17, 6
  br i1 %18, label %19, label %63

19:                                               ; preds = %2
  %20 = load i32, ptr %6, align 4, !tbaa !15
  %21 = load i32, ptr %7, align 4, !tbaa !15
  %22 = or i32 %20, %21
  %23 = load i32, ptr %8, align 4, !tbaa !15
  %24 = or i32 %22, %23
  %25 = load i32, ptr %9, align 4, !tbaa !15
  %26 = or i32 %24, %25
  %27 = load i32, ptr %10, align 4, !tbaa !15
  %28 = or i32 %26, %27
  %29 = load i32, ptr %11, align 4, !tbaa !15
  %30 = or i32 %28, %29
  %31 = icmp ult i32 %30, 256
  br i1 %31, label %32, label %63

32:                                               ; preds = %19
  %33 = load i32, ptr %6, align 4, !tbaa !15
  %34 = trunc i32 %33 to i8
  %35 = load ptr, ptr %5, align 8, !tbaa !8
  %36 = getelementptr inbounds nuw %struct.bdaddr_t, ptr %35, i32 0, i32 0
  %37 = getelementptr [6 x i8], ptr %36, i64 0, i64 0
  store i8 %34, ptr %37, align 1, !tbaa !35
  %38 = load i32, ptr %7, align 4, !tbaa !15
  %39 = trunc i32 %38 to i8
  %40 = load ptr, ptr %5, align 8, !tbaa !8
  %41 = getelementptr inbounds nuw %struct.bdaddr_t, ptr %40, i32 0, i32 0
  %42 = getelementptr [6 x i8], ptr %41, i64 0, i64 1
  store i8 %39, ptr %42, align 1, !tbaa !35
  %43 = load i32, ptr %8, align 4, !tbaa !15
  %44 = trunc i32 %43 to i8
  %45 = load ptr, ptr %5, align 8, !tbaa !8
  %46 = getelementptr inbounds nuw %struct.bdaddr_t, ptr %45, i32 0, i32 0
  %47 = getelementptr [6 x i8], ptr %46, i64 0, i64 2
  store i8 %44, ptr %47, align 1, !tbaa !35
  %48 = load i32, ptr %9, align 4, !tbaa !15
  %49 = trunc i32 %48 to i8
  %50 = load ptr, ptr %5, align 8, !tbaa !8
  %51 = getelementptr inbounds nuw %struct.bdaddr_t, ptr %50, i32 0, i32 0
  %52 = getelementptr [6 x i8], ptr %51, i64 0, i64 3
  store i8 %49, ptr %52, align 1, !tbaa !35
  %53 = load i32, ptr %10, align 4, !tbaa !15
  %54 = trunc i32 %53 to i8
  %55 = load ptr, ptr %5, align 8, !tbaa !8
  %56 = getelementptr inbounds nuw %struct.bdaddr_t, ptr %55, i32 0, i32 0
  %57 = getelementptr [6 x i8], ptr %56, i64 0, i64 4
  store i8 %54, ptr %57, align 1, !tbaa !35
  %58 = load i32, ptr %11, align 4, !tbaa !15
  %59 = trunc i32 %58 to i8
  %60 = load ptr, ptr %5, align 8, !tbaa !8
  %61 = getelementptr inbounds nuw %struct.bdaddr_t, ptr %60, i32 0, i32 0
  %62 = getelementptr [6 x i8], ptr %61, i64 0, i64 5
  store i8 %59, ptr %62, align 1, !tbaa !35
  store i32 6, ptr %3, align 4
  store i32 1, ptr %14, align 4
  br label %65

63:                                               ; preds = %19, %2
  %64 = load ptr, ptr @PyExc_OSError, align 8, !tbaa !3
  call void @PyErr_SetString(ptr noundef %64, ptr noundef @.str.599)
  store i32 -1, ptr %3, align 4
  store i32 1, ptr %14, align 4
  br label %65

65:                                               ; preds = %63, %32
  call void @llvm.lifetime.end.p0(i64 4, ptr %13) #10
  call void @llvm.lifetime.end.p0(i64 1, ptr %12) #10
  call void @llvm.lifetime.end.p0(i64 4, ptr %11) #10
  call void @llvm.lifetime.end.p0(i64 4, ptr %10) #10
  call void @llvm.lifetime.end.p0(i64 4, ptr %9) #10
  call void @llvm.lifetime.end.p0(i64 4, ptr %8) #10
  call void @llvm.lifetime.end.p0(i64 4, ptr %7) #10
  call void @llvm.lifetime.end.p0(i64 4, ptr %6) #10
  %66 = load i32, ptr %3, align 4
  ret i32 %66
}