; Function Attrs: nounwind uwtable
define internal fastcc range(i32 -1, 7) i32 @setbdaddr(ptr noundef readonly captures(none) %0, ptr noundef nonnull writeonly captures(none) %1) unnamed_addr #0 {
  %3 = alloca i32, align 4
  %4 = alloca i32, align 4
  %5 = alloca i32, align 4
  %6 = alloca i32, align 4
  %7 = alloca i32, align 4
  %8 = alloca i32, align 4
  %9 = alloca i8, align 1
  call void @llvm.lifetime.start.p0(i64 4, ptr nonnull %3) #13
  call void @llvm.lifetime.start.p0(i64 4, ptr nonnull %4) #13
  call void @llvm.lifetime.start.p0(i64 4, ptr nonnull %5) #13
  call void @llvm.lifetime.start.p0(i64 4, ptr nonnull %6) #13
  call void @llvm.lifetime.start.p0(i64 4, ptr nonnull %7) #13
  call void @llvm.lifetime.start.p0(i64 4, ptr nonnull %8) #13
  call void @llvm.lifetime.start.p0(i64 1, ptr nonnull %9) #13
  %10 = call i32 (ptr, ptr, ...) @__isoc99_sscanf(ptr noundef %0, ptr noundef nonnull @.str.598, ptr noundef nonnull %8, ptr noundef nonnull %7, ptr noundef nonnull %6, ptr noundef nonnull %5, ptr noundef nonnull %4, ptr noundef nonnull %3, ptr noundef nonnull %9) #13
  %11 = icmp eq i32 %10, 6
  br i1 %11, label %12, label %37

12:                                               ; preds = %2
  %13 = load i32, ptr %3, align 4, !tbaa !35
  %14 = load i32, ptr %4, align 4, !tbaa !35
  %15 = load i32, ptr %5, align 4, !tbaa !35
  %16 = load i32, ptr %6, align 4, !tbaa !35
  %17 = load i32, ptr %7, align 4, !tbaa !35
  %18 = load i32, ptr %8, align 4, !tbaa !35
  %19 = or i32 %14, %13
  %20 = or i32 %19, %15
  %21 = or i32 %20, %16
  %22 = or i32 %21, %17
  %23 = or i32 %22, %18
  %24 = icmp ult i32 %23, 256
  br i1 %24, label %25, label %37

25:                                               ; preds = %12
  %26 = trunc nuw i32 %13 to i8
  store i8 %26, ptr %1, align 1, !tbaa !18
  %27 = trunc i32 %14 to i8
  %28 = getelementptr i8, ptr %1, i64 1
  store i8 %27, ptr %28, align 1, !tbaa !18
  %29 = trunc i32 %15 to i8
  %30 = getelementptr i8, ptr %1, i64 2
  store i8 %29, ptr %30, align 1, !tbaa !18
  %31 = trunc i32 %16 to i8
  %32 = getelementptr i8, ptr %1, i64 3
  store i8 %31, ptr %32, align 1, !tbaa !18
  %33 = trunc i32 %17 to i8
  %34 = getelementptr i8, ptr %1, i64 4
  store i8 %33, ptr %34, align 1, !tbaa !18
  %35 = trunc nuw i32 %18 to i8
  %36 = getelementptr i8, ptr %1, i64 5
  store i8 %35, ptr %36, align 1, !tbaa !18
  br label %39

37:                                               ; preds = %12, %2
  %38 = load ptr, ptr @PyExc_OSError, align 8, !tbaa !19
  call void @PyErr_SetString(ptr noundef %38, ptr noundef nonnull @.str.599) #13
  br label %39

39:                                               ; preds = %37, %25
  %.0 = phi i32 [ 6, %25 ], [ -1, %37 ]
  call void @llvm.lifetime.end.p0(i64 1, ptr nonnull %9) #13
  call void @llvm.lifetime.end.p0(i64 4, ptr nonnull %8) #13
  call void @llvm.lifetime.end.p0(i64 4, ptr nonnull %7) #13
  call void @llvm.lifetime.end.p0(i64 4, ptr nonnull %6) #13
  call void @llvm.lifetime.end.p0(i64 4, ptr nonnull %5) #13
  call void @llvm.lifetime.end.p0(i64 4, ptr nonnull %4) #13
  call void @llvm.lifetime.end.p0(i64 4, ptr nonnull %3) #13
  ret i32 %.0
}